; Function Attrs: inlinehint nofree nosync nounwind memory(readwrite, inaccessiblemem: none) uwtable
define internal fastcc float @Amap_CutAreaDeref(ptr noundef readonly captures(none) %0, ptr noundef readonly captures(none) %1) unnamed_addr #9 {
  %3 = getelementptr inbounds nuw i8, ptr %0, i64 8
  %4 = load ptr, ptr %3, align 8, !tbaa !36
  %5 = getelementptr inbounds nuw i8, ptr %1, i64 8
  %6 = load ptr, ptr %5, align 8, !tbaa !37
  %7 = getelementptr inbounds nuw i8, ptr %6, i64 8
  %8 = load i32, ptr %7, align 8
  %9 = and i32 %8, 65535
  %10 = getelementptr i8, ptr %4, i64 8
  %.val32 = load ptr, ptr %10, align 8, !tbaa !38
  %11 = getelementptr i8, ptr %.val32, i64 8
  %.val32.val = load ptr, ptr %11, align 8, !tbaa !23
  %12 = zext nneg i32 %9 to i64
  %13 = getelementptr inbounds nuw ptr, ptr %.val32.val, i64 %12
  %14 = load ptr, ptr %13, align 8, !tbaa !24
  %15 = getelementptr inbounds nuw i8, ptr %14, i64 32
  %16 = load double, ptr %15, align 8, !tbaa !44
  %17 = fptrunc double %16 to float
  %18 = load ptr, ptr %1, align 8, !tbaa !47
  %19 = load i32, ptr %18, align 4
  %.not37 = icmp ult i32 %19, 131072
  br i1 %.not37, label %.critedge, label %.lr.ph

.lr.ph:                                           ; preds = %2
  %20 = getelementptr i8, ptr %0, i64 48
  %21 = getelementptr inbounds nuw i8, ptr %0, i64 20
  br label %22

22:                                               ; preds = %.lr.ph, %67
  %23 = phi ptr [ %18, %.lr.ph ], [ %68, %67 ]
  %indvars.iv = phi i64 [ 0, %.lr.ph ], [ %indvars.iv.next, %67 ]
  %.036 = phi float [ %17, %.lr.ph ], [ %.2, %67 ]
  %24 = getelementptr inbounds nuw i8, ptr %23, i64 4
  %25 = load ptr, ptr %5, align 8, !tbaa !37
  %26 = getelementptr inbounds nuw i8, ptr %25, i64 12
  %27 = getelementptr inbounds nuw [15 x i8], ptr %26, i64 0, i64 %indvars.iv
  %28 = load i8, ptr %27, align 1, !tbaa !34
  %29 = sext i8 %28 to i32
  %30 = ashr i32 %29, 1
  %31 = sext i32 %30 to i64
  %32 = getelementptr inbounds [0 x i32], ptr %24, i64 0, i64 %31
  %33 = load i32, ptr %32, align 4, !tbaa !25
  %34 = ashr i32 %33, 1
  %.val = load ptr, ptr %20, align 8, !tbaa !20
  %35 = getelementptr i8, ptr %.val, i64 8
  %.val.val = load ptr, ptr %35, align 8, !tbaa !23
  %36 = sext i32 %34 to i64
  %37 = getelementptr inbounds ptr, ptr %.val.val, i64 %36
  %38 = load ptr, ptr %37, align 8, !tbaa !24
  %39 = and i32 %29, 1
  %40 = and i32 %33, 1
  %41 = xor i32 %39, %40
  %42 = load i64, ptr %38, align 8
  %43 = lshr i64 %42, 63
  %44 = trunc nuw nsw i64 %43 to i32
  %.not = icmp ne i32 %41, %44
  %.phi.trans.insert = getelementptr inbounds nuw i8, ptr %38, i64 52
  %.phi.trans.insert39 = zext nneg i32 %41 to i64
  %.phi.trans.insert40 = getelementptr inbounds nuw [2 x i32], ptr %.phi.trans.insert, i64 0, i64 %.phi.trans.insert39
  %.pre = load i32, ptr %.phi.trans.insert40, align 4, !tbaa !25
  %45 = icmp eq i32 %.pre, 1
  %or.cond = select i1 %.not, i1 %45, i1 false
  br i1 %or.cond, label %46, label %._crit_edge

46:                                               ; preds = %22
  %47 = load float, ptr %21, align 4, !tbaa !63
  %48 = fadd float %.036, %47
  br label %._crit_edge

._crit_edge:                                      ; preds = %22, %46
  %49 = phi i32 [ 1, %46 ], [ %.pre, %22 ]
  %.1 = phi float [ %48, %46 ], [ %.036, %22 ]
  %50 = getelementptr inbounds nuw i8, ptr %38, i64 52
  %51 = getelementptr inbounds nuw [2 x i32], ptr %50, i64 0, i64 %.phi.trans.insert39
  %52 = add nsw i32 %49, -1
  store i32 %52, ptr %51, align 4, !tbaa !25
  %.not30 = icmp eq i32 %39, %40
  %53 = zext i1 %.not30 to i64
  %54 = getelementptr inbounds nuw [2 x i32], ptr %50, i64 0, i64 %53
  %55 = load i32, ptr %54, align 4, !tbaa !25
  %56 = sub i32 0, %55
  %57 = icmp eq i32 %52, %56
  br i1 %57, label %58, label %67

58:                                               ; preds = %._crit_edge
  %59 = trunc i64 %42 to i32
  %60 = and i32 %59, 7
  %61 = and i32 %59, 6
  %switch.i = icmp ne i32 %61, 4
  %62 = icmp ne i32 %60, 6
  %narrow.i.not = and i1 %switch.i, %62
  br i1 %narrow.i.not, label %67, label %63

63:                                               ; preds = %58
  %64 = getelementptr inbounds nuw i8, ptr %38, i64 64
  %65 = tail call fastcc float @Amap_CutAreaDeref(ptr noundef nonnull %0, ptr noundef nonnull %64)
  %66 = fadd float %.1, %65
  %.pre41 = load ptr, ptr %1, align 8, !tbaa !47
  br label %67

67:                                               ; preds = %._crit_edge, %58, %63
  %68 = phi ptr [ %.pre41, %63 ], [ %23, %58 ], [ %23, %._crit_edge ]
  %.2 = phi float [ %66, %63 ], [ %.1, %58 ], [ %.1, %._crit_edge ]
  %indvars.iv.next = add nuw nsw i64 %indvars.iv, 1
  %69 = load i32, ptr %68, align 4
  %70 = lshr i32 %69, 17
  %71 = zext nneg i32 %70 to i64
  %72 = icmp samesign ult i64 %indvars.iv.next, %71
  br i1 %72, label %22, label %.critedge, !llvm.loop !74

.critedge:                                        ; preds = %67, %2
  %.0.lcssa = phi float [ %17, %2 ], [ %.2, %67 ]
  ret float %.0.lcssa
}